target datalayout = "e-m:e-p270:32:32-p271:32:32-p272:64:64-i64:64-i128:128-f80:128-n8:16:32:64-S128"
target triple = "x86_64-unknown-linux-gnu"

%"class.icu_75::UnicodeString" = type { %"class.icu_75::Replaceable", %"union.icu_75::UnicodeString::StackBufferOrFields" }
%"class.icu_75::Replaceable" = type { %"class.icu_75::UObject" }
%"class.icu_75::UObject" = type { ptr }
%"union.icu_75::UnicodeString::StackBufferOrFields" = type { %struct.anon.0, [32 x i8] }
%struct.anon.0 = type { i16, i32, i32, ptr }
%"class.icu_75::numparse::impl::DecimalMatcher" = type { %"class.icu_75::numparse::impl::NumberParseMatcher", i8, i8, i8, i16, i16, %"class.icu_75::UnicodeString", %"class.icu_75::UnicodeString", ptr, ptr, ptr, ptr, %"class.icu_75::LocalPointer", %"class.icu_75::LocalPointer", %"class.icu_75::LocalArray" }
%"class.icu_75::numparse::impl::NumberParseMatcher" = type { ptr }
%"class.icu_75::LocalPointer" = type { %"class.icu_75::LocalPointerBase" }
%"class.icu_75::LocalPointerBase" = type { ptr }
%"class.icu_75::LocalArray" = type { %"class.icu_75::LocalPointerBase.1" }
%"class.icu_75::LocalPointerBase.1" = type { ptr }

; Function Attrs: mustprogress nounwind uwtable
define noundef zeroext i1 @_ZNK6icu_758numparse4impl14DecimalMatcher13validateGroupEiib(ptr noundef nonnull align 8 dereferenceable(200) %this, i32 noundef %sepType, i32 noundef %count, i1 noundef zeroext %isPrimary) #1 align 2 {
entry:
  %retval = alloca i1, align 1
  %this.addr = alloca ptr, align 8
  %sepType.addr = alloca i32, align 4
  %count.addr = alloca i32, align 4
  %isPrimary.addr = alloca i8, align 1
  store ptr %this, ptr %this.addr, align 8
  store i32 %sepType, ptr %sepType.addr, align 4
  store i32 %count, ptr %count.addr, align 4
  %frombool = zext i1 %isPrimary to i8
  store i8 %frombool, ptr %isPrimary.addr, align 1
  %this1 = load ptr, ptr %this.addr, align 8
  %requireGroupingMatch = getelementptr inbounds %"class.icu_75::numparse::impl::DecimalMatcher", ptr %this1, i32 0, i32 1
  %0 = load i8, ptr %requireGroupingMatch, align 8
  %tobool = trunc i8 %0 to i1
  br i1 %tobool, label %if.then, label %if.else22

if.then:                                          ; preds = %entry
  %1 = load i32, ptr %sepType.addr, align 4
  %cmp = icmp eq i32 %1, -1
  br i1 %cmp, label %if.then2, label %if.else

if.then2:                                         ; preds = %if.then
  store i1 true, ptr %retval, align 1
  br label %return

if.else:                                          ; preds = %if.then
  %2 = load i32, ptr %sepType.addr, align 4
  %cmp3 = icmp eq i32 %2, 0
  br i1 %cmp3, label %if.then4, label %if.else10

if.then4:                                         ; preds = %if.else
  %3 = load i8, ptr %isPrimary.addr, align 1
  %tobool5 = trunc i8 %3 to i1
  br i1 %tobool5, label %if.then6, label %if.else7

if.then6:                                         ; preds = %if.then4
  store i1 true, ptr %retval, align 1
  br label %return

if.else7:                                         ; preds = %if.then4
  %4 = load i32, ptr %count.addr, align 4
  %cmp8 = icmp ne i32 %4, 0
  br i1 %cmp8, label %land.rhs, label %land.end

land.rhs:                                         ; preds = %if.else7
  %5 = load i32, ptr %count.addr, align 4
  %grouping2 = getelementptr inbounds %"class.icu_75::numparse::impl::DecimalMatcher", ptr %this1, i32 0, i32 5
  %6 = load i16, ptr %grouping2, align 2
  %conv = sext i16 %6 to i32
  %cmp9 = icmp sle i32 %5, %conv
  br label %land.end

land.end:                                         ; preds = %land.rhs, %if.else7
  %7 = phi i1 [ false, %if.else7 ], [ %cmp9, %land.rhs ]
  store i1 %7, ptr %retval, align 1
  br label %return

if.else10:                                        ; preds = %if.else
  %8 = load i32, ptr %sepType.addr, align 4
  %cmp11 = icmp eq i32 %8, 1
  br i1 %cmp11, label %if.then12, label %if.else21

if.then12:                                        ; preds = %if.else10
  %9 = load i8, ptr %isPrimary.addr, align 1
  %tobool13 = trunc i8 %9 to i1
  br i1 %tobool13, label %if.then14, label %if.else17

if.then14:                                        ; preds = %if.then12
  %10 = load i32, ptr %count.addr, align 4
  %grouping1 = getelementptr inbounds %"class.icu_75::numparse::impl::DecimalMatcher", ptr %this1, i32 0, i32 4
  %11 = load i16, ptr %grouping1, align 4
  %conv15 = sext i16 %11 to i32
  %cmp16 = icmp eq i32 %10, %conv15
  store i1 %cmp16, ptr %retval, align 1
  br label %return

if.else17:                                        ; preds = %if.then12
  %12 = load i32, ptr %count.addr, align 4
  %grouping218 = getelementptr inbounds %"class.icu_75::numparse::impl::DecimalMatcher", ptr %this1, i32 0, i32 5
  %13 = load i16, ptr %grouping218, align 2
  %conv19 = sext i16 %13 to i32
  %cmp20 = icmp eq i32 %12, %conv19
  store i1 %cmp20, ptr %retval, align 1
  br label %return

if.else21:                                        ; preds = %if.else10
  store i1 true, ptr %retval, align 1
  br label %return

if.else22:                                        ; preds = %entry
  %14 = load i32, ptr %sepType.addr, align 4
  %cmp23 = icmp eq i32 %14, 1
  br i1 %cmp23, label %if.then24, label %if.else26

if.then24:                                        ; preds = %if.else22
  %15 = load i32, ptr %count.addr, align 4
  %cmp25 = icmp ne i32 %15, 1
  store i1 %cmp25, ptr %retval, align 1
  br label %return

if.else26:                                        ; preds = %if.else22
  store i1 true, ptr %retval, align 1
  br label %return

return:                                           ; preds = %if.else26, %if.then24, %if.else21, %if.else17, %if.then14, %land.end, %if.then6, %if.then2
  %16 = load i1, ptr %retval, align 1
  ret i1 %16
}