; Function Attrs: mustprogress nofree norecurse nosync nounwind willreturn memory(argmem: read) uwtable
define noundef zeroext i1 @_ZNK6icu_758numparse4impl14DecimalMatcher13validateGroupEiib(ptr nocapture noundef nonnull readonly align 8 dereferenceable(200) %this, i32 noundef %sepType, i32 noundef %count, i1 noundef zeroext %isPrimary) local_unnamed_addr #4 align 2 {
entry:
  %requireGroupingMatch = getelementptr inbounds i8, ptr %this, i64 8
  %0 = load i8, ptr %requireGroupingMatch, align 8
  %1 = and i8 %0, 1
  %tobool.not = icmp eq i8 %1, 0
  br i1 %tobool.not, label %if.else22, label %if.then

if.then:                                          ; preds = %entry
  switch i32 %sepType, label %return [
    i32 1, label %if.then12
    i32 0, label %if.then4
  ]

if.then4:                                         ; preds = %if.then
  br i1 %isPrimary, label %return, label %if.else7

if.else7:                                         ; preds = %if.then4
  %cmp8.not = icmp ne i32 %count, 0
  %grouping2 = getelementptr inbounds i8, ptr %this, i64 14
  %2 = load i16, ptr %grouping2, align 2
  %conv = sext i16 %2 to i32
  %cmp9 = icmp sge i32 %conv, %count
  %3 = select i1 %cmp8.not, i1 %cmp9, i1 false
  br label %return

if.then12:                                        ; preds = %if.then
  br i1 %isPrimary, label %if.then14, label %if.else17

if.then14:                                        ; preds = %if.then12
  %grouping1 = getelementptr inbounds i8, ptr %this, i64 12
  %4 = load i16, ptr %grouping1, align 4
  %conv15 = sext i16 %4 to i32
  %cmp16 = icmp eq i32 %conv15, %count
  br label %return

if.else17:                                        ; preds = %if.then12
  %grouping218 = getelementptr inbounds i8, ptr %this, i64 14
  %5 = load i16, ptr %grouping218, align 2
  %conv19 = sext i16 %5 to i32
  %cmp20 = icmp eq i32 %conv19, %count
  br label %return

if.else22:                                        ; preds = %entry
  %cmp23 = icmp ne i32 %sepType, 1
  %cmp25 = icmp ne i32 %count, 1
  %spec.select = or i1 %cmp23, %cmp25
  br label %return

return:                                           ; preds = %if.else22, %if.then, %if.then4, %if.else17, %if.then14, %if.else7
  %retval.0 = phi i1 [ %3, %if.else7 ], [ %cmp16, %if.then14 ], [ %cmp20, %if.else17 ], [ true, %if.then4 ], [ true, %if.then ], [ %spec.select, %if.else22 ]
  ret i1 %retval.0
}